target datalayout = "e-m:e-p270:32:32-p271:32:32-p272:64:64-i64:64-i128:128-f80:128-n8:16:32:64-S128"
target triple = "x86_64-pc-linux-gnu"

%class.b3Generic6DofConstraint = type { %class.b3TypedConstraint, %class.b3Transform, %class.b3Transform, %class.b3TranslationalLimitMotor, [3 x %class.b3RotationalLimitMotor], %class.b3Transform, %class.b3Transform, %class.b3Vector3, [3 x %class.b3Vector3], %class.b3Vector3, float, float, float, i8, %class.b3Vector3, i8, i8, i32, [8 x i8] }
%class.b3TypedConstraint = type { ptr, %struct.b3TypedObject, i32, %union.anon, float, i8, i8, i32, i32, i32, float, float, ptr }
%struct.b3TypedObject = type { i32 }
%union.anon = type { ptr }
%class.b3TranslationalLimitMotor = type { %class.b3Vector3, %class.b3Vector3, %class.b3Vector3, %class.b3Vector3, %class.b3Vector3, %class.b3Vector3, %class.b3Vector3, %class.b3Vector3, %class.b3Vector3, %class.b3Vector3, float, float, float, [3 x i8], [3 x i32], [4 x i8] }
%class.b3RotationalLimitMotor = type { float, float, float, float, float, float, float, float, float, float, float, i8, float, float, i32, float }
%class.b3Transform = type { %class.b3Matrix3x3, %class.b3Vector3 }
%class.b3Matrix3x3 = type { [3 x %class.b3Vector3] }
%class.b3Vector3 = type { %union.anon.0 }
%union.anon.0 = type { [4 x float] }

; Function Attrs: inlinehint mustprogress nounwind uwtable
define linkonce_odr dso_local noundef ptr @_ZNK9b3Vector3cvPKfEv(ptr noundef nonnull align 16 dereferenceable(16) %0) #5 comdat align 2 {
  %2 = alloca ptr, align 8
  store ptr %0, ptr %2, align 8, !tbaa !65
  %3 = load ptr, ptr %2, align 8
  %4 = getelementptr inbounds nuw %class.b3Vector3, ptr %3, i32 0, i32 0
  %5 = getelementptr inbounds [4 x float], ptr %4, i64 0, i64 0
  ret ptr %5
}

; Function Attrs: mustprogress uwtable
define dso_local noundef float @_ZNK23b3Generic6DofConstraint8getParamEii(ptr noundef nonnull align 16 dereferenceable(824) %0, i32 noundef %1, i32 noundef %2) unnamed_addr #0 align 2 {
  %4 = alloca ptr, align 8
  %5 = alloca i32, align 4
  %6 = alloca i32, align 4
  %7 = alloca float, align 4
  store ptr %0, ptr %4, align 8, !tbaa !4
  store i32 %1, ptr %5, align 4, !tbaa !9
  store i32 %2, ptr %6, align 4, !tbaa !9
  %8 = load ptr, ptr %4, align 8
  call void @llvm.lifetime.start.p0(i64 4, ptr %7) #13
  store float 0.000000e+00, ptr %7, align 4, !tbaa !37
  %9 = load i32, ptr %6, align 4, !tbaa !9
  %10 = icmp sge i32 %9, 0
  br i1 %10, label %11, label %42

11:                                               ; preds = %3
  %12 = load i32, ptr %6, align 4, !tbaa !9
  %13 = icmp slt i32 %12, 3
  br i1 %13, label %14, label %42

14:                                               ; preds = %11
  %15 = load i32, ptr %5, align 4, !tbaa !9
  switch i32 %15, label %40 [
    i32 2, label %16
    i32 4, label %24
    i32 3, label %32
  ]

16:                                               ; preds = %14
  %17 = getelementptr inbounds nuw %class.b3Generic6DofConstraint, ptr %8, i32 0, i32 3
  %18 = getelementptr inbounds nuw %class.b3TranslationalLimitMotor, ptr %17, i32 0, i32 4
  %19 = call noundef ptr @_ZNK9b3Vector3cvPKfEv(ptr noundef nonnull align 16 dereferenceable(16) %18)
  %20 = load i32, ptr %6, align 4, !tbaa !9
  %21 = sext i32 %20 to i64
  %22 = getelementptr inbounds float, ptr %19, i64 %21
  %23 = load float, ptr %22, align 4, !tbaa !37
  store float %23, ptr %7, align 4, !tbaa !37
  br label %41

24:                                               ; preds = %14
  %25 = getelementptr inbounds nuw %class.b3Generic6DofConstraint, ptr %8, i32 0, i32 3
  %26 = getelementptr inbounds nuw %class.b3TranslationalLimitMotor, ptr %25, i32 0, i32 5
  %27 = call noundef ptr @_ZNK9b3Vector3cvPKfEv(ptr noundef nonnull align 16 dereferenceable(16) %26)
  %28 = load i32, ptr %6, align 4, !tbaa !9
  %29 = sext i32 %28 to i64
  %30 = getelementptr inbounds float, ptr %27, i64 %29
  %31 = load float, ptr %30, align 4, !tbaa !37
  store float %31, ptr %7, align 4, !tbaa !37
  br label %41

32:                                               ; preds = %14
  %33 = getelementptr inbounds nuw %class.b3Generic6DofConstraint, ptr %8, i32 0, i32 3
  %34 = getelementptr inbounds nuw %class.b3TranslationalLimitMotor, ptr %33, i32 0, i32 3
  %35 = call noundef ptr @_ZNK9b3Vector3cvPKfEv(ptr noundef nonnull align 16 dereferenceable(16) %34)
  %36 = load i32, ptr %6, align 4, !tbaa !9
  %37 = sext i32 %36 to i64
  %38 = getelementptr inbounds float, ptr %35, i64 %37
  %39 = load float, ptr %38, align 4, !tbaa !37
  store float %39, ptr %7, align 4, !tbaa !37
  br label %41

40:                                               ; preds = %14
  br label %41

41:                                               ; preds = %40, %32, %24, %16
  br label %78

42:                                               ; preds = %11, %3
  %43 = load i32, ptr %6, align 4, !tbaa !9
  %44 = icmp sge i32 %43, 3
  br i1 %44, label %45, label %76

45:                                               ; preds = %42
  %46 = load i32, ptr %6, align 4, !tbaa !9
  %47 = icmp slt i32 %46, 6
  br i1 %47, label %48, label %76

48:                                               ; preds = %45
  %49 = load i32, ptr %5, align 4, !tbaa !9
  switch i32 %49, label %74 [
    i32 2, label %50
    i32 4, label %58
    i32 3, label %66
  ]

50:                                               ; preds = %48
  %51 = getelementptr inbounds nuw %class.b3Generic6DofConstraint, ptr %8, i32 0, i32 4
  %52 = load i32, ptr %6, align 4, !tbaa !9
  %53 = sub nsw i32 %52, 3
  %54 = sext i32 %53 to i64
  %55 = getelementptr inbounds [3 x %class.b3RotationalLimitMotor], ptr %51, i64 0, i64 %54
  %56 = getelementptr inbounds nuw %class.b3RotationalLimitMotor, ptr %55, i32 0, i32 8
  %57 = load float, ptr %56, align 16, !tbaa !53
  store float %57, ptr %7, align 4, !tbaa !37
  br label %75

58:                                               ; preds = %48
  %59 = getelementptr inbounds nuw %class.b3Generic6DofConstraint, ptr %8, i32 0, i32 4
  %60 = load i32, ptr %6, align 4, !tbaa !9
  %61 = sub nsw i32 %60, 3
  %62 = sext i32 %61 to i64
  %63 = getelementptr inbounds [3 x %class.b3RotationalLimitMotor], ptr %59, i64 0, i64 %62
  %64 = getelementptr inbounds nuw %class.b3RotationalLimitMotor, ptr %63, i32 0, i32 9
  %65 = load float, ptr %64, align 4, !tbaa !54
  store float %65, ptr %7, align 4, !tbaa !37
  br label %75

66:                                               ; preds = %48
  %67 = getelementptr inbounds nuw %class.b3Generic6DofConstraint, ptr %8, i32 0, i32 4
  %68 = load i32, ptr %6, align 4, !tbaa !9
  %69 = sub nsw i32 %68, 3
  %70 = sext i32 %69 to i64
  %71 = getelementptr inbounds [3 x %class.b3RotationalLimitMotor], ptr %67, i64 0, i64 %70
  %72 = getelementptr inbounds nuw %class.b3RotationalLimitMotor, ptr %71, i32 0, i32 7
  %73 = load float, ptr %72, align 4, !tbaa !52
  store float %73, ptr %7, align 4, !tbaa !37
  br label %75

74:                                               ; preds = %48
  br label %75

75:                                               ; preds = %74, %66, %58, %50
  br label %77

76:                                               ; preds = %45, %42
  br label %77

77:                                               ; preds = %76, %75
  br label %78

78:                                               ; preds = %77, %41
  %79 = load float, ptr %7, align 4, !tbaa !37
  call void @llvm.lifetime.end.p0(i64 4, ptr %7) #13
  ret float %79
}