; Function Attrs: mustprogress nofree norecurse nosync nounwind willreturn memory(argmem: read) uwtable
define dso_local noundef float @_ZNK23b3Generic6DofConstraint8getParamEii(ptr noundef nonnull readonly align 16 captures(none) dereferenceable(824) %0, i32 noundef %1, i32 noundef %2) unnamed_addr #3 align 2 {
  %or.cond = icmp ult i32 %2, 3
  br i1 %or.cond, label %4, label %20

4:                                                ; preds = %3
  switch i32 %1, label %38 [
    i32 2, label %5
    i32 4, label %10
    i32 3, label %15
  ]

5:                                                ; preds = %4
  %6 = getelementptr inbounds nuw i8, ptr %0, i64 256
  %7 = zext nneg i32 %2 to i64
  %8 = getelementptr inbounds nuw float, ptr %6, i64 %7
  %9 = load float, ptr %8, align 4, !tbaa !16
  br label %38

10:                                               ; preds = %4
  %11 = getelementptr inbounds nuw i8, ptr %0, i64 272
  %12 = zext nneg i32 %2 to i64
  %13 = getelementptr inbounds nuw float, ptr %11, i64 %12
  %14 = load float, ptr %13, align 4, !tbaa !16
  br label %38

15:                                               ; preds = %4
  %16 = getelementptr inbounds nuw i8, ptr %0, i64 240
  %17 = zext nneg i32 %2 to i64
  %18 = getelementptr inbounds nuw float, ptr %16, i64 %17
  %19 = load float, ptr %18, align 4, !tbaa !16
  br label %38

20:                                               ; preds = %3
  %21 = add i32 %2, -3
  %or.cond3 = icmp ult i32 %21, 3
  br i1 %or.cond3, label %22, label %38

22:                                               ; preds = %20
  switch i32 %1, label %38 [
    i32 2, label %23
    i32 4, label %28
    i32 3, label %33
  ]

23:                                               ; preds = %22
  %24 = shl nuw nsw i32 %21, 6
  %.idx18 = zext nneg i32 %24 to i64
  %25 = getelementptr inbounds nuw i8, ptr %0, i64 416
  %26 = getelementptr i8, ptr %25, i64 %.idx18
  %27 = load float, ptr %26, align 16, !tbaa !28
  br label %38

28:                                               ; preds = %22
  %29 = shl nuw nsw i32 %21, 6
  %.idx17 = zext nneg i32 %29 to i64
  %30 = getelementptr inbounds nuw i8, ptr %0, i64 420
  %31 = getelementptr i8, ptr %30, i64 %.idx17
  %32 = load float, ptr %31, align 4, !tbaa !29
  br label %38

33:                                               ; preds = %22
  %34 = shl nuw nsw i32 %21, 6
  %.idx = zext nneg i32 %34 to i64
  %35 = getelementptr inbounds nuw i8, ptr %0, i64 412
  %36 = getelementptr i8, ptr %35, i64 %.idx
  %37 = load float, ptr %36, align 4, !tbaa !27
  br label %38

38:                                               ; preds = %22, %33, %28, %23, %20, %5, %10, %15, %4
  %.0 = phi float [ 0.000000e+00, %4 ], [ %19, %15 ], [ %14, %10 ], [ %9, %5 ], [ 0.000000e+00, %22 ], [ %37, %33 ], [ %32, %28 ], [ %27, %23 ], [ 0.000000e+00, %20 ]
  ret float %.0
}